; Function Attrs: mustprogress uwtable
define noundef i64 @_ZNK8QuantLib19SpreadFittingMethod4sizeEv(ptr nocapture noundef nonnull readonly align 8 dereferenceable(216) %this) unnamed_addr #3 align 2 {
entry:
  %method_ = getelementptr inbounds nuw i8, ptr %this, i64 176
  %0 = load ptr, ptr %method_, align 8, !tbaa !84
  %cmp.not.i = icmp eq ptr %0, null
  br i1 %cmp.not.i, label %cond.false.i, label %_ZNK5boost10shared_ptrIN8QuantLib23FittedBondDiscountCurve13FittingMethodEEptEv.exit, !prof !74

cond.false.i:                                     ; preds = %entry
  tail call void @_ZN5boost16assertion_failedEPKcS1_S1_l(ptr noundef nonnull @.str.13, ptr noundef nonnull @__PRETTY_FUNCTION__._ZNK5boost10shared_ptrIN8QuantLib23FittedBondDiscountCurve13FittingMethodEEptEv, ptr noundef nonnull @.str.14, i64 noundef 784)
  %.pre.i = load ptr, ptr %method_, align 8, !tbaa !84
  br label %_ZNK5boost10shared_ptrIN8QuantLib23FittedBondDiscountCurve13FittingMethodEEptEv.exit

_ZNK5boost10shared_ptrIN8QuantLib23FittedBondDiscountCurve13FittingMethodEEptEv.exit: ; preds = %entry, %cond.false.i
  %1 = phi ptr [ %0, %entry ], [ %.pre.i, %cond.false.i ]
  %vtable = load ptr, ptr %1, align 8, !tbaa !14
  %vfn = getelementptr inbounds i8, ptr %vtable, i64 16
  %2 = load ptr, ptr %vfn, align 8
  %call2 = tail call noundef i64 %2(ptr noundef nonnull align 8 dereferenceable(176) %1)
  ret i64 %call2
}